#include <math.h>
#include <stdio.h>
#include <stdlib.h>
#include <string.h>

void main()
{
	int n,i,a[301],b[301]={0},j,h=1;
	scanf("%d",&n);
	for(i=0;i<=n-1;i++)
	{
		scanf("%d",&a[i]);
	}
	b[0]=a[0];
	for(i=1;i<=n-1;i++)
	{
		for(j=0;j<=i-1;j++)
		{
			if(a[i]==a[j])
			{
				break;
			}
		}
		if(j==i)
		{
			b[h]=a[i];
			h++;
		}
	}
	for(i=0;i<=h-1;i++)
	{
		if(i==0)
			printf("%d",b[i]);
		else
			printf(",%d",b[i]);
	}
	printf("\n");
}
		
	