; ModuleID = 'source-C-CXX/52/866.c'
source_filename = "source-C-CXX/52/866.c"
target datalayout = "e-m:e-p270:32:32-p271:32:32-p272:64:64-i64:64-f80:128-n8:16:32:64-S128"
target triple = "x86_64-pc-linux-gnu"

@.str = private unnamed_addr constant [3 x i8] c"%d\00", align 1
@.str.1 = private unnamed_addr constant [4 x i8] c",%d\00", align 1

; Function Attrs: nofree nounwind sspstrong uwtable
define dso_local void @main() local_unnamed_addr #0 {
  %1 = alloca i32, align 4
  %2 = alloca [301 x i32], align 16
  %3 = alloca [301 x i32], align 16
  %4 = bitcast i32* %1 to i8*
  call void @llvm.lifetime.start.p0i8(i64 4, i8* nonnull %4) #5
  %5 = bitcast [301 x i32]* %2 to i8*
  call void @llvm.lifetime.start.p0i8(i64 1204, i8* nonnull %5) #5
  %6 = bitcast [301 x i32]* %3 to i8*
  call void @llvm.lifetime.start.p0i8(i64 1204, i8* nonnull %6) #5
  call void @llvm.memset.p0i8.i64(i8* noundef nonnull align 16 dereferenceable(1204) %6, i8 0, i64 1204, i1 false)
  %7 = call i32 (i8*, ...) @__isoc99_scanf(i8* getelementptr inbounds ([3 x i8], [3 x i8]* @.str, i64 0, i64 0), i32* nonnull %1)
  %8 = load i32, i32* %1, align 4, !tbaa !5
  %9 = icmp sgt i32 %8, 0
  br i1 %9, label %10, label %30

10:                                               ; preds = %0, %10
  %11 = phi i64 [ %14, %10 ], [ 0, %0 ]
  %12 = getelementptr inbounds [301 x i32], [301 x i32]* %2, i64 0, i64 %11
  %13 = call i32 (i8*, ...) @__isoc99_scanf(i8* getelementptr inbounds ([3 x i8], [3 x i8]* @.str, i64 0, i64 0), i32* nonnull %12)
  %14 = add nuw nsw i64 %11, 1
  %15 = load i32, i32* %1, align 4, !tbaa !5
  %16 = sext i32 %15 to i64
  %17 = icmp slt i64 %14, %16
  br i1 %17, label %10, label %18, !llvm.loop !9

18:                                               ; preds = %10
  %19 = getelementptr inbounds [301 x i32], [301 x i32]* %2, i64 0, i64 0
  %20 = load i32, i32* %19, align 16, !tbaa !5
  %21 = getelementptr inbounds [301 x i32], [301 x i32]* %3, i64 0, i64 0
  store i32 %20, i32* %21, align 16, !tbaa !5
  %22 = icmp sgt i32 %15, 1
  br i1 %22, label %23, label %30

23:                                               ; preds = %18
  %24 = zext i32 %15 to i64
  br label %25

25:                                               ; preds = %23, %56
  %26 = phi i64 [ 1, %23 ], [ %58, %56 ]
  %27 = phi i32 [ 1, %23 ], [ %57, %56 ]
  %28 = getelementptr inbounds [301 x i32], [301 x i32]* %2, i64 0, i64 %26
  %29 = load i32, i32* %28, align 4, !tbaa !5
  br label %40

30:                                               ; preds = %0, %18
  %31 = phi i32 [ %20, %18 ], [ undef, %0 ]
  %32 = call i32 (i8*, ...) @printf(i8* nonnull dereferenceable(1) getelementptr inbounds ([3 x i8], [3 x i8]* @.str, i64 0, i64 0), i32 %31)
  br label %67

33:                                               ; preds = %56
  %34 = icmp sgt i32 %57, 0
  br i1 %34, label %35, label %67

35:                                               ; preds = %33
  %36 = load i32, i32* %21, align 16
  %37 = zext i32 %57 to i64
  %38 = call i32 (i8*, ...) @printf(i8* nonnull dereferenceable(1) getelementptr inbounds ([3 x i8], [3 x i8]* @.str, i64 0, i64 0), i32 %36)
  %39 = icmp eq i32 %57, 1
  br i1 %39, label %67, label %60

40:                                               ; preds = %25, %45
  %41 = phi i64 [ 0, %25 ], [ %46, %45 ]
  %42 = getelementptr inbounds [301 x i32], [301 x i32]* %2, i64 0, i64 %41
  %43 = load i32, i32* %42, align 4, !tbaa !5
  %44 = icmp eq i32 %29, %43
  br i1 %44, label %48, label %45

45:                                               ; preds = %40
  %46 = add nuw nsw i64 %41, 1
  %47 = icmp eq i64 %46, %26
  br i1 %47, label %48, label %40, !llvm.loop !11

48:                                               ; preds = %40, %45
  %49 = phi i64 [ %41, %40 ], [ %26, %45 ]
  %50 = and i64 %49, 4294967295
  %51 = icmp eq i64 %50, %26
  br i1 %51, label %52, label %56

52:                                               ; preds = %48
  %53 = sext i32 %27 to i64
  %54 = getelementptr inbounds [301 x i32], [301 x i32]* %3, i64 0, i64 %53
  store i32 %29, i32* %54, align 4, !tbaa !5
  %55 = add nsw i32 %27, 1
  br label %56

56:                                               ; preds = %48, %52
  %57 = phi i32 [ %55, %52 ], [ %27, %48 ]
  %58 = add nuw nsw i64 %26, 1
  %59 = icmp eq i64 %58, %24
  br i1 %59, label %33, label %25, !llvm.loop !12

60:                                               ; preds = %35, %60
  %61 = phi i64 [ %65, %60 ], [ 1, %35 ]
  %62 = getelementptr inbounds [301 x i32], [301 x i32]* %3, i64 0, i64 %61
  %63 = load i32, i32* %62, align 4, !tbaa !5
  %64 = call i32 (i8*, ...) @printf(i8* nonnull dereferenceable(1) getelementptr inbounds ([4 x i8], [4 x i8]* @.str.1, i64 0, i64 0), i32 %63)
  %65 = add nuw nsw i64 %61, 1
  %66 = icmp eq i64 %65, %37
  br i1 %66, label %67, label %60, !llvm.loop !13

67:                                               ; preds = %60, %35, %30, %33
  %68 = call i32 @putchar(i32 10)
  call void @llvm.lifetime.end.p0i8(i64 1204, i8* nonnull %6) #5
  call void @llvm.lifetime.end.p0i8(i64 1204, i8* nonnull %5) #5
  call void @llvm.lifetime.end.p0i8(i64 4, i8* nonnull %4) #5
  ret void
}

; Function Attrs: argmemonly mustprogress nofree nosync nounwind willreturn
declare void @llvm.lifetime.start.p0i8(i64 immarg, i8* nocapture) #1

; Function Attrs: argmemonly mustprogress nofree nounwind willreturn writeonly
declare void @llvm.memset.p0i8.i64(i8* nocapture writeonly, i8, i64, i1 immarg) #2

; Function Attrs: nofree nounwind
declare noundef i32 @__isoc99_scanf(i8* nocapture noundef readonly, ...) local_unnamed_addr #3

; Function Attrs: nofree nounwind
declare noundef i32 @printf(i8* nocapture noundef readonly, ...) local_unnamed_addr #3

; Function Attrs: argmemonly mustprogress nofree nosync nounwind willreturn
declare void @llvm.lifetime.end.p0i8(i64 immarg, i8* nocapture) #1

; Function Attrs: nofree nounwind
declare noundef i32 @putchar(i32 noundef) local_unnamed_addr #4


!llvm.module.flags = !{!0, !1, !2, !3}
!llvm.ident = !{!4}

!0 = !{i32 1, !"wchar_size", i32 4}
!1 = !{i32 7, !"PIC Level", i32 2}
!2 = !{i32 7, !"PIE Level", i32 2}
!3 = !{i32 7, !"uwtable", i32 1}
!4 = !{!"clang version 13.0.0"}
!5 = !{!6, !6, i64 0}
!6 = !{!"int", !7, i64 0}
!7 = !{!"omnipotent char", !8, i64 0}
!8 = !{!"Simple C/C++ TBAA"}
!9 = distinct !{!9, !10}
!10 = !{!"llvm.loop.mustprogress"}
!11 = distinct !{!11, !10}
!12 = distinct !{!12, !10}
!13 = distinct !{!13, !10, !14}
!14 = !{!"llvm.loop.peeled.count", i32 1}
